target datalayout = "e-m:e-p270:32:32-p271:32:32-p272:64:64-i64:64-i128:128-f80:128-n8:16:32:64-S128"
target triple = "x86_64-pc-linux-gnu"

%struct.MovTextContext = type { ptr, ptr, ptr, ptr, ptr, i32, i32, %struct.StyleBox, %struct.AVBPrint, %struct.HighlightBox, %struct.HilightcolorBox, i8, %struct.StyleBox, i16, ptr, i32, double, i32 }
%struct.AVBPrint = type { ptr, i32, i32, i32, [1 x i8], [1000 x i8] }
%struct.HighlightBox = type { i16, i16 }
%struct.HilightcolorBox = type { i32 }
%struct.StyleBox = type { i16, i16, i8, i16, i8, i32 }

; Function Attrs: alwaysinline nounwind willreturn memory(none) uwtable
define internal zeroext i16 @av_bswap16(i16 noundef zeroext %0) #9 {
  %2 = alloca i16, align 2
  store i16 %0, ptr %2, align 2, !tbaa !102
  %3 = load i16, ptr %2, align 2, !tbaa !102
  %4 = zext i16 %3 to i32
  %5 = ashr i32 %4, 8
  %6 = load i16, ptr %2, align 2, !tbaa !102
  %7 = zext i16 %6 to i32
  %8 = shl i32 %7, 8
  %9 = or i32 %5, %8
  %10 = trunc i32 %9 to i16
  store i16 %10, ptr %2, align 2, !tbaa !102
  %11 = load i16, ptr %2, align 2, !tbaa !102
  ret i16 %11
}

; Function Attrs: alwaysinline nounwind willreturn memory(none) uwtable
define internal i32 @av_bswap32(i32 noundef %0) #9 {
  %2 = alloca i32, align 4
  store i32 %0, ptr %2, align 4, !tbaa !42
  %3 = load i32, ptr %2, align 4, !tbaa !42
  %4 = shl i32 %3, 8
  %5 = and i32 %4, 65280
  %6 = load i32, ptr %2, align 4, !tbaa !42
  %7 = lshr i32 %6, 8
  %8 = and i32 %7, 255
  %9 = or i32 %5, %8
  %10 = shl i32 %9, 16
  %11 = load i32, ptr %2, align 4, !tbaa !42
  %12 = lshr i32 %11, 16
  %13 = shl i32 %12, 8
  %14 = and i32 %13, 65280
  %15 = load i32, ptr %2, align 4, !tbaa !42
  %16 = lshr i32 %15, 16
  %17 = lshr i32 %16, 8
  %18 = and i32 %17, 255
  %19 = or i32 %14, %18
  %20 = or i32 %10, %19
  ret i32 %20
}

; Function Attrs: alwaysinline nounwind uwtable
define internal void @bytestream_put_be16(ptr noundef %0, i32 noundef %1) #5 {
  %3 = alloca ptr, align 8
  %4 = alloca i32, align 4
  store ptr %0, ptr %3, align 8, !tbaa !97
  store i32 %1, ptr %4, align 4, !tbaa !42
  %5 = load i32, ptr %4, align 4, !tbaa !42
  %6 = trunc i32 %5 to i16
  %7 = call zeroext i16 @av_bswap16(i16 noundef zeroext %6) #12
  %8 = load ptr, ptr %3, align 8, !tbaa !97
  %9 = load ptr, ptr %8, align 8, !tbaa !43
  store i16 %7, ptr %9, align 1, !tbaa !63
  %10 = load ptr, ptr %3, align 8, !tbaa !97
  %11 = load ptr, ptr %10, align 8, !tbaa !43
  %12 = getelementptr inbounds i8, ptr %11, i64 2
  store ptr %12, ptr %10, align 8, !tbaa !43
  ret void
}

; Function Attrs: alwaysinline nounwind uwtable
define internal void @bytestream_put_be32(ptr noundef %0, i32 noundef %1) #5 {
  %3 = alloca ptr, align 8
  %4 = alloca i32, align 4
  store ptr %0, ptr %3, align 8, !tbaa !97
  store i32 %1, ptr %4, align 4, !tbaa !42
  %5 = load i32, ptr %4, align 4, !tbaa !42
  %6 = call i32 @av_bswap32(i32 noundef %5) #12
  %7 = load ptr, ptr %3, align 8, !tbaa !97
  %8 = load ptr, ptr %7, align 8, !tbaa !43
  store i32 %6, ptr %8, align 1, !tbaa !63
  %9 = load ptr, ptr %3, align 8, !tbaa !97
  %10 = load ptr, ptr %9, align 8, !tbaa !43
  %11 = getelementptr inbounds i8, ptr %10, i64 4
  store ptr %11, ptr %9, align 8, !tbaa !43
  ret void
}

; Function Attrs: nounwind uwtable
define internal void @encode_hlit(ptr noundef %0) #1 {
  %2 = alloca ptr, align 8
  %3 = alloca [12 x i8], align 1
  %4 = alloca ptr, align 8
  store ptr %0, ptr %2, align 8, !tbaa !29
  %5 = load ptr, ptr %2, align 8, !tbaa !29
  %6 = getelementptr inbounds nuw %struct.MovTextContext, ptr %5, i32 0, i32 11
  %7 = load i8, ptr %6, align 8, !tbaa !48
  %8 = zext i8 %7 to i32
  %9 = and i32 %8, 2
  %10 = icmp ne i32 %9, 0
  br i1 %10, label %11, label %26

11:                                               ; preds = %1
  call void @llvm.lifetime.start.p0(i64 12, ptr %3) #11
  call void @llvm.lifetime.start.p0(i64 8, ptr %4) #11
  %12 = getelementptr inbounds [12 x i8], ptr %3, i64 0, i64 0
  store ptr %12, ptr %4, align 8, !tbaa !43
  call void @bytestream_put_be32(ptr noundef %4, i32 noundef 12)
  call void @bytestream_put_be32(ptr noundef %4, i32 noundef 1751935348)
  %13 = load ptr, ptr %2, align 8, !tbaa !29
  %14 = getelementptr inbounds nuw %struct.MovTextContext, ptr %13, i32 0, i32 9
  %15 = getelementptr inbounds nuw %struct.HighlightBox, ptr %14, i32 0, i32 0
  %16 = load i16, ptr %15, align 8, !tbaa !115
  %17 = zext i16 %16 to i32
  call void @bytestream_put_be16(ptr noundef %4, i32 noundef %17)
  %18 = load ptr, ptr %2, align 8, !tbaa !29
  %19 = getelementptr inbounds nuw %struct.MovTextContext, ptr %18, i32 0, i32 9
  %20 = getelementptr inbounds nuw %struct.HighlightBox, ptr %19, i32 0, i32 1
  %21 = load i16, ptr %20, align 2, !tbaa !116
  %22 = zext i16 %21 to i32
  call void @bytestream_put_be16(ptr noundef %4, i32 noundef %22)
  %23 = load ptr, ptr %2, align 8, !tbaa !29
  %24 = getelementptr inbounds nuw %struct.MovTextContext, ptr %23, i32 0, i32 8
  %25 = getelementptr inbounds [12 x i8], ptr %3, i64 0, i64 0
  call void @av_bprint_append_data(ptr noundef %24, ptr noundef %25, i32 noundef 12)
  call void @llvm.lifetime.end.p0(i64 8, ptr %4) #11
  call void @llvm.lifetime.end.p0(i64 12, ptr %3) #11
  br label %26

26:                                               ; preds = %11, %1
  ret void
}