; Function Attrs: nounwind uwtable
define internal void @encode_hlit(ptr noundef %0) #1 {
  %2 = alloca [12 x i8], align 4
  %3 = getelementptr inbounds nuw i8, ptr %0, i64 1096
  %4 = load i8, ptr %3, align 8, !tbaa !76
  %5 = and i8 %4, 2
  %.not = icmp eq i8 %5, 0
  br i1 %.not, label %17, label %6

6:                                                ; preds = %1
  call void @llvm.lifetime.start.p0(i64 12, ptr nonnull %2) #8
  store i32 201326592, ptr %2, align 4, !tbaa !58
  %7 = getelementptr inbounds nuw i8, ptr %2, i64 4
  store i32 1953066088, ptr %7, align 4, !tbaa !58
  %8 = getelementptr inbounds nuw i8, ptr %2, i64 8
  %9 = getelementptr inbounds nuw i8, ptr %0, i64 1088
  %10 = load i16, ptr %9, align 8, !tbaa !109
  %11 = tail call i16 @llvm.bswap.i16(i16 %10)
  store i16 %11, ptr %8, align 4, !tbaa !58
  %12 = getelementptr inbounds nuw i8, ptr %2, i64 10
  %13 = getelementptr inbounds nuw i8, ptr %0, i64 1090
  %14 = load i16, ptr %13, align 2, !tbaa !110
  %15 = tail call i16 @llvm.bswap.i16(i16 %14)
  store i16 %15, ptr %12, align 2, !tbaa !58
  %16 = getelementptr inbounds nuw i8, ptr %0, i64 64
  call void @av_bprint_append_data(ptr noundef nonnull %16, ptr noundef nonnull %2, i32 noundef 12) #8
  call void @llvm.lifetime.end.p0(i64 12, ptr nonnull %2) #8
  br label %17

17:                                               ; preds = %6, %1
  ret void
}